Certificate:
    Data:
        Version: 3 (0x2)
        Serial Number: 2 (0x2)
    Signature Algorithm: sha256WithRSAEncryption
        Issuer: O=Test Org, CN=Test Org rauc CA Development
        Validity
            Not Before: Jan  1 00:00:00 1970 GMT
            Not After : Dec 31 23:59:59 9999 GMT
        Subject: O=Test Org, CN=Test Org Development-1
        Subject Public Key Info:
            Public Key Algorithm: rsaEncryption
                Public-Key: (2048 bit)
                Modulus:
                    00:f1:42:e3:3f:4c:4f:01:93:c4:bf:f6:09:da:c5:
                    e4:73:bc:c7:d8:0e:db:aa:7e:11:4b:21:e3:fc:9d:
                    9c:b5:2c:05:3e:a6:45:dd:11:b9:e7:38:15:ff:33:
                    11:2e:fe:da:8c:37:03:15:08:eb:01:24:96:07:06:
                    41:a0:73:5a:f5:bb:c4:9a:b1:5b:38:75:d8:8f:51:
                    e5:02:4f:64:2d:58:6a:85:c0:46:3e:17:71:63:33:
                    22:03:6c:e0:5a:5d:bc:d7:91:53:89:e9:f0:5a:35:
                    b8:f2:9d:09:fa:36:b5:df:65:49:11:1c:8f:b6:15:
                    0b:ba:d6:12:6b:1a:73:5f:56:2d:06:b3:c0:a4:0e:
                    7e:dc:b3:85:8b:a5:3c:5a:b6:60:0b:12:d1:04:2b:
                    e4:3c:cb:7c:8e:e7:d9:8a:92:78:47:09:4c:4f:da:
                    0f:8b:85:31:a3:ff:9b:f9:39:be:6f:91:b8:24:60:
                    af:29:31:d7:e0:3a:94:a5:b1:67:36:db:c7:0b:35:
                    be:1a:b5:92:ea:fa:d1:f6:cd:0d:36:db:fb:a6:9d:
                    ab:0b:a7:c4:f9:e3:59:59:ce:78:87:c0:d8:6e:de:
                    7f:7b:9e:f0:59:bc:b5:dc:d8:cc:77:84:ec:f6:b1:
                    f0:ff:58:c5:5a:6f:5f:79:8a:39:01:9a:3c:c0:e4:
                    d5:59
                Exponent: 65537 (0x10001)
        X509v3 extensions:
            X509v3 Subject Key Identifier: 
                20:D9:D1:13:EA:0A:F6:0B:54:E8:32:EB:66:53:70:B8:5C:D6:13:D5
            X509v3 Authority Key Identifier: 
                keyid:34:EB:79:1B:39:E5:EA:C2:F7:33:BC:B1:D9:0E:9E:24:33:E5:AC:88
                DirName:/O=Test Org/CN=Test Org rauc CA Development
                serial:01

            X509v3 Basic Constraints: 
                CA:FALSE
    Signature Algorithm: sha256WithRSAEncryption
         3b:a4:4c:a7:ef:e7:b6:ca:da:d3:ec:eb:22:bf:f9:be:b8:3d:
         c0:b5:0e:26:e5:a6:2d:07:2d:f6:85:e3:3f:08:94:22:39:7b:
         9b:e8:63:50:9a:6f:16:4a:b3:9d:71:5f:53:a6:fb:29:42:79:
         87:66:b7:67:37:8d:d3:ba:5e:50:b4:5c:13:fa:e2:9e:04:9b:
         a1:fe:b3:d3:d1:b1:78:75:1a:06:65:b4:13:6f:e7:f7:86:65:
         ae:2e:d0:e0:68:25:3d:19:fc:99:0a:44:d8:b3:df:23:8d:65:
         45:9e:9a:dd:d6:56:90:ea:a7:1c:bf:00:00:26:c3:5a:ba:9a:
         4e:e3:ac:dd:7f:c6:6c:90:67:29:76:e1:51:82:18:fe:b9:5d:
         d2:32:21:39:53:73:6e:aa:e6:93:58:09:b8:43:ab:2f:4a:0b:
         a1:a4:80:17:95:ac:5f:ba:e1:21:ac:44:9f:8c:5b:d1:29:55:
         11:59:a0:f9:6d:e3:81:77:c1:ce:aa:c1:48:c3:d7:7e:41:e8:
         7b:35:44:97:66:66:9b:06:ed:ce:16:6b:06:bd:76:26:22:16:
         34:47:eb:03:18:4d:53:7c:64:d1:fd:ef:12:ec:5f:8b:00:c9:
         ea:3d:35:ca:db:a7:6e:b9:f6:04:da:36:da:60:9f:c6:8a:7f:
         00:ab:6f:00
-----BEGIN CERTIFICATE-----
MIIDfzCCAmegAwIBAgIBAjANBgkqhkiG9w0BAQsFADA6MREwDwYDVQQKDAhUZXN0
IE9yZzElMCMGA1UEAwwcVGVzdCBPcmcgcmF1YyBDQSBEZXZlbG9wbWVudDAiGA8x
OTcwMDEwMTAwMDAwMFoYDzk5OTkxMjMxMjM1OTU5WjA0MREwDwYDVQQKDAhUZXN0
IE9yZzEfMB0GA1UEAwwWVGVzdCBPcmcgRGV2ZWxvcG1lbnQtMTCCASIwDQYJKoZI
hvcNAQEBBQADggEPADCCAQoCggEBAPFC4z9MTwGTxL/2CdrF5HO8x9gO26p+EUsh
4/ydnLUsBT6mRd0Ruec4Ff8zES7+2ow3AxUI6wEklgcGQaBzWvW7xJqxWzh12I9R
5QJPZC1YaoXARj4XcWMzIgNs4FpdvNeRU4np8Fo1uPKdCfo2td9lSREcj7YVC7rW
Emsac19WLQazwKQOftyzhYulPFq2YAsS0QQr5DzLfI7n2YqSeEcJTE/aD4uFMaP/
m/k5vm+RuCRgrykx1+A6lKWxZzbbxws1vhq1kur60fbNDTbb+6adqwunxPnjWVnO
eIfA2G7ef3ue8Fm8tdzYzHeE7Pax8P9YxVpvX3mKOQGaPMDk1VkCAwEAAaOBkTCB
jjAdBgNVHQ4EFgQUINnRE+oK9gtU6DLrZlNwuFzWE9UwYgYDVR0jBFswWYAUNOt5
Gznl6sL3M7yx2Q6eJDPlrIihPqQ8MDoxETAPBgNVBAoMCFRlc3QgT3JnMSUwIwYD
VQQDDBxUZXN0IE9yZyByYXVjIENBIERldmVsb3BtZW50ggEBMAkGA1UdEwQCMAAw
DQYJKoZIhvcNAQELBQADggEBADukTKfv57bK2tPs6yK/+b64PcC1Diblpi0HLfaF
4z8IlCI5e5voY1CabxZKs51xX1Om+ylCeYdmt2c3jdO6XlC0XBP64p4Em6H+s9PR
sXh1GgZltBNv5/eGZa4u0OBoJT0Z/JkKRNiz3yONZUWemt3WVpDqpxy/AAAmw1q6
mk7jrN1/xmyQZyl24VGCGP65XdIyITlTc26q5pNYCbhDqy9KC6GkgBeVrF+64SGs
RJ+MW9EpVRFZoPlt44F3wc6qwUjD135B6Hs1RJdmZpsG7c4Wawa9diYiFjRH6wMY
TVN8ZNH97xLsX4sAyeo9Ncrbp2659gTaNtpgn8aKfwCrbwA=
-----END CERTIFICATE-----
