Certificate:
    Data:
        Version: 3 (0x2)
        Serial Number: 1 (0x1)
    Signature Algorithm: sha256WithRSAEncryption
        Issuer: O=Test Org, CN=Test Org rauc CA Development
        Validity
            Not Before: Jan  1 00:00:00 1970 GMT
            Not After : Dec 31 23:59:59 9999 GMT
        Subject: O=Test Org, CN=Test Org rauc CA Development
        Subject Public Key Info:
            Public Key Algorithm: rsaEncryption
                Public-Key: (2048 bit)
                Modulus:
                    00:bd:34:0e:06:7c:11:a3:bf:e3:40:7c:a2:51:da:
                    92:d1:1c:e3:25:b8:61:4a:82:ec:e8:8e:16:54:81:
                    11:18:db:40:85:31:dc:68:c9:ab:64:fc:0f:4a:8c:
                    69:86:0e:1a:91:cd:8c:0b:38:15:20:7a:f6:3f:23:
                    e7:06:52:4b:46:c7:d5:6f:6f:55:1e:ed:e1:ac:16:
                    74:bb:ee:14:fb:55:e0:35:4a:f0:1a:ed:34:4a:54:
                    97:e9:82:ed:74:f0:14:ee:62:c2:e8:49:49:02:fc:
                    19:00:37:2d:29:64:3d:22:94:be:19:a2:e8:b6:d6:
                    c7:85:6b:c6:af:f6:15:9e:28:68:50:2e:49:db:40:
                    5d:6e:a6:7d:41:5c:15:3a:cb:e1:90:3e:0f:10:ee:
                    d2:95:4e:ce:45:d4:95:8f:e0:bd:9c:be:e5:49:8f:
                    35:1e:1e:aa:9e:f5:c1:23:b9:e3:32:5a:e1:84:b7:
                    15:67:83:9e:4e:fb:ca:e3:a0:72:39:26:be:b7:93:
                    e3:72:53:54:f0:fe:a4:9a:cd:ca:be:21:77:08:c9:
                    8a:de:4c:c9:e5:3c:74:ea:cb:eb:15:a0:6d:83:51:
                    8c:4e:3e:2a:f4:f3:96:b0:32:ea:19:1e:7f:68:01:
                    59:d6:69:43:7e:55:87:18:ed:12:61:d1:b0:0b:49:
                    b2:eb
                Exponent: 65537 (0x10001)
        X509v3 extensions:
            X509v3 Subject Key Identifier: 
                34:EB:79:1B:39:E5:EA:C2:F7:33:BC:B1:D9:0E:9E:24:33:E5:AC:88
            X509v3 Authority Key Identifier: 
                keyid:34:EB:79:1B:39:E5:EA:C2:F7:33:BC:B1:D9:0E:9E:24:33:E5:AC:88
                DirName:/O=Test Org/CN=Test Org rauc CA Development
                serial:01

            X509v3 Basic Constraints: 
                CA:TRUE
    Signature Algorithm: sha256WithRSAEncryption
         4d:a0:57:50:a5:c7:49:0e:a8:cb:70:b2:45:d7:6b:20:d2:2e:
         79:1e:d6:b3:8d:59:08:66:49:f0:23:67:d8:83:40:6a:47:d4:
         c4:55:d5:7b:4c:b4:c8:01:f0:4c:ea:df:12:54:00:35:44:77:
         70:d9:16:dd:b6:b3:c0:75:d5:c4:a7:2c:0f:ce:e3:bc:09:b3:
         4b:69:82:b8:8c:b3:8d:fb:26:5d:97:8b:73:7e:27:8d:04:35:
         ba:fc:38:d5:ff:d6:b3:4d:d7:42:bd:12:eb:ef:2d:cf:a3:33:
         3a:e2:e0:17:92:9e:d7:36:fe:69:f3:1e:1c:9d:1b:25:d0:f0:
         9a:4c:95:72:fe:3b:91:e1:b6:aa:ca:0f:5f:25:d9:72:07:78:
         49:31:f9:3b:0e:7f:d6:6c:8c:ce:34:0a:e6:a4:91:7a:19:e4:
         0b:28:52:38:a9:c8:00:62:46:30:2c:69:90:42:9d:8d:2b:ec:
         09:af:53:f8:da:2d:69:3f:17:dc:f0:05:57:39:42:18:f7:61:
         38:84:17:e6:6b:b0:f1:9d:a4:69:0b:e0:5a:eb:4c:40:3c:3a:
         8a:f2:42:8a:d0:c3:4e:fa:91:61:cc:77:bb:29:3e:0e:64:18:
         46:c6:a9:b8:1b:6b:a2:da:dd:7c:3b:1b:ca:c9:9e:30:df:29:
         16:e4:d1:cf
-----BEGIN CERTIFICATE-----
MIIDiDCCAnCgAwIBAgIBATANBgkqhkiG9w0BAQsFADA6MREwDwYDVQQKDAhUZXN0
IE9yZzElMCMGA1UEAwwcVGVzdCBPcmcgcmF1YyBDQSBEZXZlbG9wbWVudDAiGA8x
OTcwMDEwMTAwMDAwMFoYDzk5OTkxMjMxMjM1OTU5WjA6MREwDwYDVQQKDAhUZXN0
IE9yZzElMCMGA1UEAwwcVGVzdCBPcmcgcmF1YyBDQSBEZXZlbG9wbWVudDCCASIw
DQYJKoZIhvcNAQEBBQADggEPADCCAQoCggEBAL00DgZ8EaO/40B8olHaktEc4yW4
YUqC7OiOFlSBERjbQIUx3GjJq2T8D0qMaYYOGpHNjAs4FSB69j8j5wZSS0bH1W9v
VR7t4awWdLvuFPtV4DVK8BrtNEpUl+mC7XTwFO5iwuhJSQL8GQA3LSlkPSKUvhmi
6LbWx4Vrxq/2FZ4oaFAuSdtAXW6mfUFcFTrL4ZA+DxDu0pVOzkXUlY/gvZy+5UmP
NR4eqp71wSO54zJa4YS3FWeDnk77yuOgcjkmvreT43JTVPD+pJrNyr4hdwjJit5M
yeU8dOrL6xWgbYNRjE4+KvTzlrAy6hkef2gBWdZpQ35VhxjtEmHRsAtJsusCAwEA
AaOBlDCBkTAdBgNVHQ4EFgQUNOt5Gznl6sL3M7yx2Q6eJDPlrIgwYgYDVR0jBFsw
WYAUNOt5Gznl6sL3M7yx2Q6eJDPlrIihPqQ8MDoxETAPBgNVBAoMCFRlc3QgT3Jn
MSUwIwYDVQQDDBxUZXN0IE9yZyByYXVjIENBIERldmVsb3BtZW50ggEBMAwGA1Ud
EwQFMAMBAf8wDQYJKoZIhvcNAQELBQADggEBAE2gV1Clx0kOqMtwskXXayDSLnke
1rONWQhmSfAjZ9iDQGpH1MRV1XtMtMgB8Ezq3xJUADVEd3DZFt22s8B11cSnLA/O
47wJs0tpgriMs437Jl2Xi3N+J40ENbr8ONX/1rNN10K9EuvvLc+jMzri4BeSntc2
/mnzHhydGyXQ8JpMlXL+O5HhtqrKD18l2XIHeEkx+TsOf9ZsjM40CuakkXoZ5Aso
UjipyABiRjAsaZBCnY0r7AmvU/jaLWk/F9zwBVc5Qhj3YTiEF+ZrsPGdpGkL4Frr
TEA8OoryQorQw076kWHMd7spPg5kGEbGqbgba6La3Xw7G8rJnjDfKRbk0c8=
-----END CERTIFICATE-----
